; Function Attrs: nounwind uwtable
define internal noundef i32 @gdsdb_send(ptr noundef %0, ptr readnone captures(none) %1, ptr noundef %2, i32 noundef %3) #0 {
  %5 = tail call i32 @tvb_reported_length_remaining(ptr noundef %0, i32 noundef %3) #3
  %6 = icmp slt i32 %5, 20
  br i1 %6, label %23, label %7

7:                                                ; preds = %4
  %8 = load i32, ptr @hf_gdsdb_send_request, align 4
  %9 = tail call ptr @proto_tree_add_item(ptr noundef %2, i32 noundef %8, ptr noundef %0, i32 noundef %3, i32 noundef 4, i32 noundef 0) #3
  %10 = add i32 %3, 4
  %11 = load i32, ptr @hf_gdsdb_send_incarnation, align 4
  %12 = tail call ptr @proto_tree_add_item(ptr noundef %2, i32 noundef %11, ptr noundef %0, i32 noundef %10, i32 noundef 4, i32 noundef 0) #3
  %13 = add i32 %3, 8
  %14 = load i32, ptr @hf_gdsdb_send_transaction, align 4
  %15 = tail call ptr @proto_tree_add_item(ptr noundef %2, i32 noundef %14, ptr noundef %0, i32 noundef %13, i32 noundef 4, i32 noundef 0) #3
  %16 = add i32 %3, 12
  %17 = load i32, ptr @hf_gdsdb_send_msgnr, align 4
  %18 = tail call ptr @proto_tree_add_item(ptr noundef %2, i32 noundef %17, ptr noundef %0, i32 noundef %16, i32 noundef 4, i32 noundef 0) #3
  %19 = add i32 %3, 16
  %20 = load i32, ptr @hf_gdsdb_send_messages, align 4
  %21 = tail call ptr @proto_tree_add_item(ptr noundef %2, i32 noundef %20, ptr noundef %0, i32 noundef %19, i32 noundef 4, i32 noundef 0) #3
  %22 = add i32 %3, 20
  br label %23

23:                                               ; preds = %4, %7
  %.0 = phi i32 [ %22, %7 ], [ -1, %4 ]
  ret i32 %.0
}